target datalayout = "e-m:e-p270:32:32-p271:32:32-p272:64:64-i64:64-i128:128-f80:128-n8:16:32:64-S128"
target triple = "x86_64-pc-linux-gnu"

@.str.26 = private unnamed_addr constant [27 x i8] c"    wire [%d:0] N1 = -n1;\0A\00", align 1
@.str.27 = private unnamed_addr constant [36 x i8] c"    wire [%d:0] %c%d = %c%d << %d;\0A\00", align 1
@.str.28 = private unnamed_addr constant [36 x i8] c"    wire [%d:0] %c%d = n%d %c n%d;\0A\00", align 1
@.str.29 = private unnamed_addr constant [29 x i8] c"    wire [%d:0] N%d = -n%d;\0A\00", align 1

; Function Attrs: inlinehint nounwind uwtable
define internal i32 @Abc_AbsInt(i32 noundef %0) #4 {
  %2 = alloca i32, align 4
  store i32 %0, ptr %2, align 4, !tbaa !8
  %3 = load i32, ptr %2, align 4, !tbaa !8
  %4 = icmp slt i32 %3, 0
  br i1 %4, label %5, label %8

5:                                                ; preds = %1
  %6 = load i32, ptr %2, align 4, !tbaa !8
  %7 = sub nsw i32 0, %6
  br label %10

8:                                                ; preds = %1
  %9 = load i32, ptr %2, align 4, !tbaa !8
  br label %10

10:                                               ; preds = %8, %5
  %11 = phi i32 [ %7, %5 ], [ %9, %8 ]
  ret i32 %11
}

; Function Attrs: inlinehint nounwind uwtable
define internal i32 @Abc_InfoMask(i32 noundef %0) #4 {
  %2 = alloca i32, align 4
  store i32 %0, ptr %2, align 4, !tbaa !8
  %3 = load i32, ptr %2, align 4, !tbaa !8
  %4 = sub nsw i32 32, %3
  %5 = lshr i32 -1, %4
  ret i32 %5
}

; Function Attrs: nounwind uwtable
define void @Macc_ConstMultGenOne_rec(ptr noundef %0, ptr noundef %1, i32 noundef %2, i32 noundef %3, i32 noundef %4) #0 {
  %6 = alloca ptr, align 8
  %7 = alloca ptr, align 8
  %8 = alloca i32, align 4
  %9 = alloca i32, align 4
  %10 = alloca i32, align 4
  %11 = alloca i32, align 4
  %12 = alloca i32, align 4
  %13 = alloca i32, align 4
  %14 = alloca i32, align 4
  %15 = alloca i32, align 4
  %16 = alloca i8, align 1
  %17 = alloca i8, align 1
  %18 = alloca i32, align 4
  %19 = alloca i32, align 4
  store ptr %0, ptr %6, align 8, !tbaa !3
  store ptr %1, ptr %7, align 8, !tbaa !14
  store i32 %2, ptr %8, align 4, !tbaa !8
  store i32 %3, ptr %9, align 4, !tbaa !8
  store i32 %4, ptr %10, align 4, !tbaa !8
  call void @llvm.lifetime.start.p0(i64 4, ptr %11) #9
  %20 = load i32, ptr %9, align 4, !tbaa !8
  %21 = call i32 @Abc_InfoMask(i32 noundef %20)
  store i32 %21, ptr %11, align 4, !tbaa !8
  call void @llvm.lifetime.start.p0(i64 4, ptr %12) #9
  %22 = load i32, ptr %11, align 4, !tbaa !8
  %23 = load i32, ptr %8, align 4, !tbaa !8
  %24 = and i32 %22, %23
  store i32 %24, ptr %12, align 4, !tbaa !8
  call void @llvm.lifetime.start.p0(i64 4, ptr %13) #9
  %25 = load i32, ptr %10, align 4, !tbaa !8
  %26 = load i32, ptr %9, align 4, !tbaa !8
  %27 = add nsw i32 %25, %26
  store i32 %27, ptr %13, align 4, !tbaa !8
  call void @llvm.lifetime.start.p0(i64 4, ptr %14) #9
  %28 = load ptr, ptr %7, align 8, !tbaa !14
  %29 = load i32, ptr %12, align 4, !tbaa !8
  %30 = zext i32 %29 to i64
  %31 = getelementptr inbounds nuw i32, ptr %28, i64 %30
  %32 = load i32, ptr %31, align 4, !tbaa !8
  %33 = lshr i32 %32, 16
  store i32 %33, ptr %14, align 4, !tbaa !8
  call void @llvm.lifetime.start.p0(i64 4, ptr %15) #9
  %34 = load ptr, ptr %7, align 8, !tbaa !14
  %35 = load i32, ptr %12, align 4, !tbaa !8
  %36 = zext i32 %35 to i64
  %37 = getelementptr inbounds nuw i32, ptr %34, i64 %36
  %38 = load i32, ptr %37, align 4, !tbaa !8
  %39 = and i32 %38, 32767
  store i32 %39, ptr %15, align 4, !tbaa !8
  call void @llvm.lifetime.start.p0(i64 1, ptr %16) #9
  %40 = load i32, ptr %8, align 4, !tbaa !8
  %41 = icmp slt i32 %40, 0
  %42 = select i1 %41, i32 78, i32 110
  %43 = trunc i32 %42 to i8
  store i8 %43, ptr %16, align 1, !tbaa !36
  call void @llvm.lifetime.start.p0(i64 1, ptr %17) #9
  %44 = load ptr, ptr %7, align 8, !tbaa !14
  %45 = load i32, ptr %12, align 4, !tbaa !8
  %46 = zext i32 %45 to i64
  %47 = getelementptr inbounds nuw i32, ptr %44, i64 %46
  %48 = load i32, ptr %47, align 4, !tbaa !8
  %49 = lshr i32 %48, 15
  %50 = and i32 %49, 1
  %51 = icmp ne i32 %50, 0
  %52 = select i1 %51, i32 45, i32 43
  %53 = trunc i32 %52 to i8
  store i8 %53, ptr %17, align 1, !tbaa !36
  %54 = load ptr, ptr %7, align 8, !tbaa !14
  %55 = load i32, ptr %12, align 4, !tbaa !8
  %56 = zext i32 %55 to i64
  %57 = getelementptr inbounds nuw i32, ptr %54, i64 %56
  %58 = load i32, ptr %57, align 4, !tbaa !8
  %59 = icmp eq i32 %58, -1
  br i1 %59, label %60, label %115

60:                                               ; preds = %5
  call void @llvm.lifetime.start.p0(i64 4, ptr %18) #9
  call void @llvm.lifetime.start.p0(i64 4, ptr %19) #9
  store i32 0, ptr %19, align 4, !tbaa !8
  br label %61

61:                                               ; preds = %73, %60
  %62 = load i32, ptr %19, align 4, !tbaa !8
  %63 = load i32, ptr %9, align 4, !tbaa !8
  %64 = icmp slt i32 %62, %63
  br i1 %64, label %65, label %76

65:                                               ; preds = %61
  %66 = load i32, ptr %8, align 4, !tbaa !8
  %67 = load i32, ptr %19, align 4, !tbaa !8
  %68 = ashr i32 %66, %67
  %69 = and i32 %68, 1
  %70 = icmp ne i32 %69, 0
  br i1 %70, label %71, label %72

71:                                               ; preds = %65
  br label %76

72:                                               ; preds = %65
  br label %73

73:                                               ; preds = %72
  %74 = load i32, ptr %19, align 4, !tbaa !8
  %75 = add nsw i32 %74, 1
  store i32 %75, ptr %19, align 4, !tbaa !8
  br label %61, !llvm.loop !37

76:                                               ; preds = %71, %61
  %77 = load i32, ptr %8, align 4, !tbaa !8
  %78 = load i32, ptr %19, align 4, !tbaa !8
  %79 = ashr i32 %77, %78
  store i32 %79, ptr %18, align 4, !tbaa !8
  %80 = load i32, ptr %18, align 4, !tbaa !8
  %81 = icmp eq i32 %80, -1
  br i1 %81, label %82, label %87

82:                                               ; preds = %76
  %83 = load ptr, ptr %6, align 8, !tbaa !3
  %84 = load i32, ptr %13, align 4, !tbaa !8
  %85 = sub nsw i32 %84, 1
  %86 = call i32 (ptr, ptr, ...) @fprintf(ptr noundef %83, ptr noundef @.str.26, i32 noundef %85) #9
  br label %87

87:                                               ; preds = %82, %76
  %88 = load i32, ptr %18, align 4, !tbaa !8
  %89 = call i32 @Abc_AbsInt(i32 noundef %88)
  %90 = icmp ne i32 %89, 1
  br i1 %90, label %91, label %97

91:                                               ; preds = %87
  %92 = load ptr, ptr %6, align 8, !tbaa !3
  %93 = load ptr, ptr %7, align 8, !tbaa !14
  %94 = load i32, ptr %18, align 4, !tbaa !8
  %95 = load i32, ptr %9, align 4, !tbaa !8
  %96 = load i32, ptr %10, align 4, !tbaa !8
  call void @Macc_ConstMultGenOne_rec(ptr noundef %92, ptr noundef %93, i32 noundef %94, i32 noundef %95, i32 noundef %96)
  br label %97

97:                                               ; preds = %91, %87
  %98 = load i32, ptr %19, align 4, !tbaa !8
  %99 = icmp sgt i32 %98, 0
  br i1 %99, label %100, label %114

100:                                              ; preds = %97
  %101 = load ptr, ptr %6, align 8, !tbaa !3
  %102 = load i32, ptr %13, align 4, !tbaa !8
  %103 = sub nsw i32 %102, 1
  %104 = load i8, ptr %16, align 1, !tbaa !36
  %105 = sext i8 %104 to i32
  %106 = load i32, ptr %8, align 4, !tbaa !8
  %107 = call i32 @Abc_AbsInt(i32 noundef %106)
  %108 = load i8, ptr %16, align 1, !tbaa !36
  %109 = sext i8 %108 to i32
  %110 = load i32, ptr %18, align 4, !tbaa !8
  %111 = call i32 @Abc_AbsInt(i32 noundef %110)
  %112 = load i32, ptr %19, align 4, !tbaa !8
  %113 = call i32 (ptr, ptr, ...) @fprintf(ptr noundef %101, ptr noundef @.str.27, i32 noundef %103, i32 noundef %105, i32 noundef %107, i32 noundef %109, i32 noundef %111, i32 noundef %112) #9
  br label %114

114:                                              ; preds = %100, %97
  call void @llvm.lifetime.end.p0(i64 4, ptr %19) #9
  call void @llvm.lifetime.end.p0(i64 4, ptr %18) #9
  br label %161

115:                                              ; preds = %5
  %116 = load i32, ptr %14, align 4, !tbaa !8
  %117 = icmp ne i32 %116, 0
  br i1 %117, label %118, label %144

118:                                              ; preds = %115
  %119 = load i32, ptr %15, align 4, !tbaa !8
  %120 = icmp ne i32 %119, 0
  br i1 %120, label %121, label %144

121:                                              ; preds = %118
  %122 = load ptr, ptr %6, align 8, !tbaa !3
  %123 = load ptr, ptr %7, align 8, !tbaa !14
  %124 = load i32, ptr %14, align 4, !tbaa !8
  %125 = load i32, ptr %9, align 4, !tbaa !8
  %126 = load i32, ptr %10, align 4, !tbaa !8
  call void @Macc_ConstMultGenOne_rec(ptr noundef %122, ptr noundef %123, i32 noundef %124, i32 noundef %125, i32 noundef %126)
  %127 = load ptr, ptr %6, align 8, !tbaa !3
  %128 = load ptr, ptr %7, align 8, !tbaa !14
  %129 = load i32, ptr %15, align 4, !tbaa !8
  %130 = load i32, ptr %9, align 4, !tbaa !8
  %131 = load i32, ptr %10, align 4, !tbaa !8
  call void @Macc_ConstMultGenOne_rec(ptr noundef %127, ptr noundef %128, i32 noundef %129, i32 noundef %130, i32 noundef %131)
  %132 = load ptr, ptr %6, align 8, !tbaa !3
  %133 = load i32, ptr %13, align 4, !tbaa !8
  %134 = sub nsw i32 %133, 1
  %135 = load i8, ptr %16, align 1, !tbaa !36
  %136 = sext i8 %135 to i32
  %137 = load i32, ptr %8, align 4, !tbaa !8
  %138 = call i32 @Abc_AbsInt(i32 noundef %137)
  %139 = load i32, ptr %14, align 4, !tbaa !8
  %140 = load i8, ptr %17, align 1, !tbaa !36
  %141 = sext i8 %140 to i32
  %142 = load i32, ptr %15, align 4, !tbaa !8
  %143 = call i32 (ptr, ptr, ...) @fprintf(ptr noundef %132, ptr noundef @.str.28, i32 noundef %134, i32 noundef %136, i32 noundef %138, i32 noundef %139, i32 noundef %141, i32 noundef %142) #9
  br label %160

144:                                              ; preds = %118, %115
  %145 = load i32, ptr %15, align 4, !tbaa !8
  %146 = icmp eq i32 %145, 0
  br i1 %146, label %147, label %159

147:                                              ; preds = %144
  %148 = load ptr, ptr %6, align 8, !tbaa !3
  %149 = load ptr, ptr %7, align 8, !tbaa !14
  %150 = load i32, ptr %14, align 4, !tbaa !8
  %151 = load i32, ptr %9, align 4, !tbaa !8
  %152 = load i32, ptr %10, align 4, !tbaa !8
  call void @Macc_ConstMultGenOne_rec(ptr noundef %148, ptr noundef %149, i32 noundef %150, i32 noundef %151, i32 noundef %152)
  %153 = load ptr, ptr %6, align 8, !tbaa !3
  %154 = load i32, ptr %13, align 4, !tbaa !8
  %155 = sub nsw i32 %154, 1
  %156 = load i32, ptr %14, align 4, !tbaa !8
  %157 = load i32, ptr %14, align 4, !tbaa !8
  %158 = call i32 (ptr, ptr, ...) @fprintf(ptr noundef %153, ptr noundef @.str.29, i32 noundef %155, i32 noundef %156, i32 noundef %157) #9
  br label %159

159:                                              ; preds = %147, %144
  br label %160

160:                                              ; preds = %159, %121
  br label %161

161:                                              ; preds = %160, %114
  call void @llvm.lifetime.end.p0(i64 1, ptr %17) #9
  call void @llvm.lifetime.end.p0(i64 1, ptr %16) #9
  call void @llvm.lifetime.end.p0(i64 4, ptr %15) #9
  call void @llvm.lifetime.end.p0(i64 4, ptr %14) #9
  call void @llvm.lifetime.end.p0(i64 4, ptr %13) #9
  call void @llvm.lifetime.end.p0(i64 4, ptr %12) #9
  call void @llvm.lifetime.end.p0(i64 4, ptr %11) #9
  ret void
}