; Function Attrs: nofree nounwind uwtable
define void @Macc_ConstMultGenOne_rec(ptr noundef %0, ptr noundef %1, i32 noundef %2, i32 noundef %3, i32 noundef %4) local_unnamed_addr #4 {
  %6 = sub nsw i32 32, %3
  %7 = lshr i32 -1, %6
  %8 = and i32 %7, %2
  %9 = add nsw i32 %4, %3
  %10 = zext i32 %8 to i64
  %11 = getelementptr inbounds nuw i32, ptr %1, i64 %10
  %12 = load i32, ptr %11, align 4, !tbaa !14
  %13 = lshr i32 %12, 16
  %14 = and i32 %12, 32767
  %15 = icmp slt i32 %2, 0
  %16 = select i1 %15, i8 78, i8 110
  %17 = and i32 %12, 32768
  %.not = icmp eq i32 %17, 0
  %18 = icmp eq i32 %12, -1
  br i1 %18, label %.preheader, label %38

.preheader:                                       ; preds = %5
  %19 = icmp sgt i32 %3, 0
  br i1 %19, label %.lr.ph, label %._crit_edge

.lr.ph:                                           ; preds = %.preheader, %22
  %.077 = phi i32 [ %23, %22 ], [ 0, %.preheader ]
  %20 = shl nuw i32 1, %.077
  %21 = and i32 %20, %2
  %.not72 = icmp eq i32 %21, 0
  br i1 %.not72, label %22, label %._crit_edge

22:                                               ; preds = %.lr.ph
  %23 = add nuw nsw i32 %.077, 1
  %exitcond.not = icmp eq i32 %23, %3
  br i1 %exitcond.not, label %._crit_edge, label %.lr.ph, !llvm.loop !33

._crit_edge:                                      ; preds = %22, %.lr.ph, %.preheader
  %.0.lcssa = phi i32 [ 0, %.preheader ], [ %.077, %.lr.ph ], [ %3, %22 ]
  %24 = ashr i32 %2, %.0.lcssa
  %25 = icmp eq i32 %24, -1
  br i1 %25, label %.thread, label %28

.thread:                                          ; preds = %._crit_edge
  %26 = add nsw i32 %9, -1
  %27 = tail call i32 (ptr, ptr, ...) @fprintf(ptr noundef %0, ptr noundef nonnull @.str.26, i32 noundef %26) #12
  br label %31

28:                                               ; preds = %._crit_edge
  %29 = tail call range(i32 0, -2147483648) i32 @llvm.abs.i32(i32 %24, i1 true)
  %.not73 = icmp eq i32 %29, 1
  br i1 %.not73, label %31, label %30

30:                                               ; preds = %28
  tail call void @Macc_ConstMultGenOne_rec(ptr noundef %0, ptr noundef %1, i32 noundef %24, i32 noundef %3, i32 noundef %4)
  br label %31

31:                                               ; preds = %.thread, %30, %28
  %.not74 = icmp eq i32 %.0.lcssa, 0
  br i1 %.not74, label %common.ret80, label %32

32:                                               ; preds = %31
  %33 = add nsw i32 %9, -1
  %34 = zext nneg i8 %16 to i32
  %35 = tail call range(i32 0, -2147483648) i32 @llvm.abs.i32(i32 %2, i1 true)
  %36 = tail call range(i32 0, -2147483648) i32 @llvm.abs.i32(i32 %24, i1 true)
  %37 = tail call i32 (ptr, ptr, ...) @fprintf(ptr noundef %0, ptr noundef nonnull @.str.27, i32 noundef %33, i32 noundef %34, i32 noundef %35, i32 noundef %34, i32 noundef %36, i32 noundef %.0.lcssa) #12
  br label %common.ret80

38:                                               ; preds = %5
  %39 = icmp ugt i32 %12, 65535
  %40 = icmp ne i32 %14, 0
  %or.cond = and i1 %39, %40
  br i1 %or.cond, label %41, label %47

common.ret80:                                     ; preds = %31, %32, %47, %49, %41
  ret void

41:                                               ; preds = %38
  tail call void @Macc_ConstMultGenOne_rec(ptr noundef %0, ptr noundef nonnull %1, i32 noundef %13, i32 noundef %3, i32 noundef %4)
  tail call void @Macc_ConstMultGenOne_rec(ptr noundef %0, ptr noundef nonnull %1, i32 noundef %14, i32 noundef %3, i32 noundef %4)
  %42 = add nsw i32 %9, -1
  %43 = zext nneg i8 %16 to i32
  %44 = tail call range(i32 0, -2147483648) i32 @llvm.abs.i32(i32 %2, i1 true)
  %45 = select i1 %.not, i32 43, i32 45
  %46 = tail call i32 (ptr, ptr, ...) @fprintf(ptr noundef %0, ptr noundef nonnull @.str.28, i32 noundef %42, i32 noundef %43, i32 noundef %44, i32 noundef %13, i32 noundef %45, i32 noundef %14) #12
  br label %common.ret80

47:                                               ; preds = %38
  %48 = icmp eq i32 %14, 0
  br i1 %48, label %49, label %common.ret80

49:                                               ; preds = %47
  tail call void @Macc_ConstMultGenOne_rec(ptr noundef %0, ptr noundef nonnull %1, i32 noundef %13, i32 noundef %3, i32 noundef %4)
  %50 = add nsw i32 %9, -1
  %51 = tail call i32 (ptr, ptr, ...) @fprintf(ptr noundef %0, ptr noundef nonnull @.str.29, i32 noundef %50, i32 noundef %13, i32 noundef %13) #12
  br label %common.ret80
}